target datalayout = "e-m:e-p270:32:32-p271:32:32-p272:64:64-i64:64-i128:128-f80:128-n8:16:32:64-S128"
target triple = "x86_64-pc-linux-gnu"

%struct.ref_iterator_vtable = type { ptr, ptr, ptr }
%struct.ref_dir = type { i32, i32, i32, ptr, ptr }
%struct.ref_entry = type { i8, %union.anon, [0 x i8] }
%union.anon = type { %struct.ref_value }
%struct.ref_value = type { %struct.object_id, ptr }
%struct.object_id = type { [32 x i8], i32 }
%struct.ref_cache = type { ptr, ptr, ptr }
%struct.cache_ref_iterator = type { %struct.ref_iterator, i64, i64, ptr, ptr, ptr }
%struct.ref_iterator = type { ptr, ptr, ptr, ptr, i32 }
%struct.cache_ref_iterator_level = type { ptr, i32, i32 }

@.str = private unnamed_addr constant [17 x i8] c"refs/ref-cache.c\00", align 1
@.str.1 = private unnamed_addr constant [51 x i8] c"incomplete ref_store without fill_ref_dir function\00", align 1
@cache_ref_iterator_vtable = internal global %struct.ref_iterator_vtable { ptr @cache_ref_iterator_advance, ptr @cache_ref_iterator_peel, ptr @cache_ref_iterator_abort }, align 8
@.str.3 = private unnamed_addr constant [27 x i8] c"size_t overflow: %lu * %lu\00", align 1

; Function Attrs: inlinehint nounwind uwtable
define internal i64 @st_mult(i64 noundef %0, i64 noundef %1) #2 {
  %3 = alloca i64, align 8
  %4 = alloca i64, align 8
  store i64 %0, ptr %3, align 8, !tbaa !19
  store i64 %1, ptr %4, align 8, !tbaa !19
  %5 = load i64, ptr %3, align 8, !tbaa !19
  %6 = icmp ne i64 %5, 0
  br i1 %6, label %7, label %15

7:                                                ; preds = %2
  %8 = load i64, ptr %4, align 8, !tbaa !19
  %9 = load i64, ptr %3, align 8, !tbaa !19
  %10 = udiv i64 -1, %9
  %11 = icmp ugt i64 %8, %10
  br i1 %11, label %12, label %15

12:                                               ; preds = %7
  %13 = load i64, ptr %3, align 8, !tbaa !19
  %14 = load i64, ptr %4, align 8, !tbaa !19
  call void (ptr, ...) @die(ptr noundef @.str.3, i64 noundef %13, i64 noundef %14) #9
  unreachable

15:                                               ; preds = %7, %2
  %16 = load i64, ptr %3, align 8, !tbaa !19
  %17 = load i64, ptr %4, align 8, !tbaa !19
  %18 = mul i64 %16, %17
  ret i64 %18
}

; Function Attrs: nounwind uwtable
define dso_local ptr @get_ref_dir(ptr noundef %0) #0 {
  %2 = alloca ptr, align 8
  %3 = alloca ptr, align 8
  store ptr %0, ptr %2, align 8, !tbaa !9
  call void @llvm.lifetime.start.p0(i64 8, ptr %3) #10
  %4 = load ptr, ptr %2, align 8, !tbaa !9
  %5 = getelementptr inbounds nuw %struct.ref_entry, ptr %4, i32 0, i32 1
  store ptr %5, ptr %3, align 8, !tbaa !4
  %6 = load ptr, ptr %2, align 8, !tbaa !9
  %7 = getelementptr inbounds nuw %struct.ref_entry, ptr %6, i32 0, i32 0
  %8 = load i8, ptr %7, align 8, !tbaa !21
  %9 = zext i8 %8 to i32
  %10 = and i32 %9, 32
  %11 = icmp ne i32 %10, 0
  br i1 %11, label %12, label %41

12:                                               ; preds = %1
  %13 = load ptr, ptr %3, align 8, !tbaa !4
  %14 = getelementptr inbounds nuw %struct.ref_dir, ptr %13, i32 0, i32 3
  %15 = load ptr, ptr %14, align 8, !tbaa !22
  %16 = getelementptr inbounds nuw %struct.ref_cache, ptr %15, i32 0, i32 2
  %17 = load ptr, ptr %16, align 8, !tbaa !23
  %18 = icmp ne ptr %17, null
  br i1 %18, label %20, label %19

19:                                               ; preds = %12
  call void (ptr, i32, ptr, ...) @BUG_fl(ptr noundef @.str, i32 noundef 28, ptr noundef @.str.1) #9
  unreachable

20:                                               ; preds = %12
  %21 = load ptr, ptr %3, align 8, !tbaa !4
  %22 = getelementptr inbounds nuw %struct.ref_dir, ptr %21, i32 0, i32 3
  %23 = load ptr, ptr %22, align 8, !tbaa !22
  %24 = getelementptr inbounds nuw %struct.ref_cache, ptr %23, i32 0, i32 2
  %25 = load ptr, ptr %24, align 8, !tbaa !23
  %26 = load ptr, ptr %3, align 8, !tbaa !4
  %27 = getelementptr inbounds nuw %struct.ref_dir, ptr %26, i32 0, i32 3
  %28 = load ptr, ptr %27, align 8, !tbaa !22
  %29 = getelementptr inbounds nuw %struct.ref_cache, ptr %28, i32 0, i32 1
  %30 = load ptr, ptr %29, align 8, !tbaa !26
  %31 = load ptr, ptr %3, align 8, !tbaa !4
  %32 = load ptr, ptr %2, align 8, !tbaa !9
  %33 = getelementptr inbounds nuw %struct.ref_entry, ptr %32, i32 0, i32 2
  %34 = getelementptr inbounds [0 x i8], ptr %33, i64 0, i64 0
  call void %25(ptr noundef %30, ptr noundef %31, ptr noundef %34)
  %35 = load ptr, ptr %2, align 8, !tbaa !9
  %36 = getelementptr inbounds nuw %struct.ref_entry, ptr %35, i32 0, i32 0
  %37 = load i8, ptr %36, align 8, !tbaa !21
  %38 = zext i8 %37 to i32
  %39 = and i32 %38, -33
  %40 = trunc i32 %39 to i8
  store i8 %40, ptr %36, align 8, !tbaa !21
  br label %41

41:                                               ; preds = %20, %1
  %42 = load ptr, ptr %3, align 8, !tbaa !4
  call void @llvm.lifetime.end.p0(i64 8, ptr %3) #10
  ret ptr %42
}

; Function Attrs: nounwind uwtable
define dso_local ptr @cache_ref_iterator_begin(ptr noundef %0, ptr noundef %1, ptr noundef %2, i32 noundef %3) #0 {
  %5 = alloca ptr, align 8
  %6 = alloca ptr, align 8
  %7 = alloca ptr, align 8
  %8 = alloca ptr, align 8
  %9 = alloca i32, align 4
  %10 = alloca ptr, align 8
  %11 = alloca ptr, align 8
  %12 = alloca ptr, align 8
  %13 = alloca ptr, align 8
  %14 = alloca i32, align 4
  store ptr %0, ptr %6, align 8, !tbaa !36
  store ptr %1, ptr %7, align 8, !tbaa !27
  store ptr %2, ptr %8, align 8, !tbaa !48
  store i32 %3, ptr %9, align 4, !tbaa !31
  call void @llvm.lifetime.start.p0(i64 8, ptr %10) #10
  call void @llvm.lifetime.start.p0(i64 8, ptr %11) #10
  call void @llvm.lifetime.start.p0(i64 8, ptr %12) #10
  call void @llvm.lifetime.start.p0(i64 8, ptr %13) #10
  %15 = load ptr, ptr %6, align 8, !tbaa !36
  %16 = getelementptr inbounds nuw %struct.ref_cache, ptr %15, i32 0, i32 0
  %17 = load ptr, ptr %16, align 8, !tbaa !37
  %18 = call ptr @get_ref_dir(ptr noundef %17)
  store ptr %18, ptr %10, align 8, !tbaa !4
  %19 = load ptr, ptr %7, align 8, !tbaa !27
  %20 = icmp ne ptr %19, null
  br i1 %20, label %21, label %30

21:                                               ; preds = %4
  %22 = load ptr, ptr %7, align 8, !tbaa !27
  %23 = load i8, ptr %22, align 1, !tbaa !21
  %24 = sext i8 %23 to i32
  %25 = icmp ne i32 %24, 0
  br i1 %25, label %26, label %30

26:                                               ; preds = %21
  %27 = load ptr, ptr %10, align 8, !tbaa !4
  %28 = load ptr, ptr %7, align 8, !tbaa !27
  %29 = call ptr @find_containing_dir(ptr noundef %27, ptr noundef %28)
  store ptr %29, ptr %10, align 8, !tbaa !4
  br label %30

30:                                               ; preds = %26, %21, %4
  %31 = load ptr, ptr %10, align 8, !tbaa !4
  %32 = icmp ne ptr %31, null
  br i1 %32, label %35, label %33

33:                                               ; preds = %30
  %34 = call ptr @empty_ref_iterator_begin()
  store ptr %34, ptr %5, align 8
  store i32 1, ptr %14, align 4
  br label %118

35:                                               ; preds = %30
  %36 = load i32, ptr %9, align 4, !tbaa !31
  %37 = icmp ne i32 %36, 0
  br i1 %37, label %38, label %41

38:                                               ; preds = %35
  %39 = load ptr, ptr %10, align 8, !tbaa !4
  %40 = load ptr, ptr %7, align 8, !tbaa !27
  call void @prime_ref_dir(ptr noundef %39, ptr noundef %40)
  br label %41

41:                                               ; preds = %38, %35
  %42 = call ptr @xcalloc(i64 noundef 1, i64 noundef 80)
  store ptr %42, ptr %11, align 8, !tbaa !50
  %43 = load ptr, ptr %11, align 8, !tbaa !50
  %44 = getelementptr inbounds nuw %struct.cache_ref_iterator, ptr %43, i32 0, i32 0
  store ptr %44, ptr %12, align 8, !tbaa !52
  %45 = load ptr, ptr %12, align 8, !tbaa !52
  call void @base_ref_iterator_init(ptr noundef %45, ptr noundef @cache_ref_iterator_vtable)
  br label %46

46:                                               ; preds = %41
  %47 = load ptr, ptr %11, align 8, !tbaa !50
  %48 = getelementptr inbounds nuw %struct.cache_ref_iterator, ptr %47, i32 0, i32 2
  %49 = load i64, ptr %48, align 8, !tbaa !54
  %50 = icmp ugt i64 10, %49
  br i1 %50, label %51, label %82

51:                                               ; preds = %46
  %52 = load ptr, ptr %11, align 8, !tbaa !50
  %53 = getelementptr inbounds nuw %struct.cache_ref_iterator, ptr %52, i32 0, i32 2
  %54 = load i64, ptr %53, align 8, !tbaa !54
  %55 = add i64 %54, 16
  %56 = mul i64 %55, 3
  %57 = udiv i64 %56, 2
  %58 = icmp ult i64 %57, 10
  br i1 %58, label %59, label %62

59:                                               ; preds = %51
  %60 = load ptr, ptr %11, align 8, !tbaa !50
  %61 = getelementptr inbounds nuw %struct.cache_ref_iterator, ptr %60, i32 0, i32 2
  store i64 10, ptr %61, align 8, !tbaa !54
  br label %71

62:                                               ; preds = %51
  %63 = load ptr, ptr %11, align 8, !tbaa !50
  %64 = getelementptr inbounds nuw %struct.cache_ref_iterator, ptr %63, i32 0, i32 2
  %65 = load i64, ptr %64, align 8, !tbaa !54
  %66 = add i64 %65, 16
  %67 = mul i64 %66, 3
  %68 = udiv i64 %67, 2
  %69 = load ptr, ptr %11, align 8, !tbaa !50
  %70 = getelementptr inbounds nuw %struct.cache_ref_iterator, ptr %69, i32 0, i32 2
  store i64 %68, ptr %70, align 8, !tbaa !54
  br label %71

71:                                               ; preds = %62, %59
  %72 = load ptr, ptr %11, align 8, !tbaa !50
  %73 = getelementptr inbounds nuw %struct.cache_ref_iterator, ptr %72, i32 0, i32 4
  %74 = load ptr, ptr %73, align 8, !tbaa !59
  %75 = load ptr, ptr %11, align 8, !tbaa !50
  %76 = getelementptr inbounds nuw %struct.cache_ref_iterator, ptr %75, i32 0, i32 2
  %77 = load i64, ptr %76, align 8, !tbaa !54
  %78 = call i64 @st_mult(i64 noundef 16, i64 noundef %77)
  %79 = call ptr @xrealloc(ptr noundef %74, i64 noundef %78)
  %80 = load ptr, ptr %11, align 8, !tbaa !50
  %81 = getelementptr inbounds nuw %struct.cache_ref_iterator, ptr %80, i32 0, i32 4
  store ptr %79, ptr %81, align 8, !tbaa !59
  br label %82

82:                                               ; preds = %71, %46
  br label %83

83:                                               ; preds = %82
  br label %84

84:                                               ; preds = %83
  %85 = load ptr, ptr %11, align 8, !tbaa !50
  %86 = getelementptr inbounds nuw %struct.cache_ref_iterator, ptr %85, i32 0, i32 1
  store i64 1, ptr %86, align 8, !tbaa !60
  %87 = load ptr, ptr %11, align 8, !tbaa !50
  %88 = getelementptr inbounds nuw %struct.cache_ref_iterator, ptr %87, i32 0, i32 4
  %89 = load ptr, ptr %88, align 8, !tbaa !59
  %90 = getelementptr inbounds %struct.cache_ref_iterator_level, ptr %89, i64 0
  store ptr %90, ptr %13, align 8, !tbaa !61
  %91 = load ptr, ptr %13, align 8, !tbaa !61
  %92 = getelementptr inbounds nuw %struct.cache_ref_iterator_level, ptr %91, i32 0, i32 2
  store i32 -1, ptr %92, align 4, !tbaa !62
  %93 = load ptr, ptr %10, align 8, !tbaa !4
  %94 = load ptr, ptr %13, align 8, !tbaa !61
  %95 = getelementptr inbounds nuw %struct.cache_ref_iterator_level, ptr %94, i32 0, i32 0
  store ptr %93, ptr %95, align 8, !tbaa !64
  %96 = load ptr, ptr %7, align 8, !tbaa !27
  %97 = icmp ne ptr %96, null
  br i1 %97, label %98, label %110

98:                                               ; preds = %84
  %99 = load ptr, ptr %7, align 8, !tbaa !27
  %100 = load i8, ptr %99, align 1, !tbaa !21
  %101 = sext i8 %100 to i32
  %102 = icmp ne i32 %101, 0
  br i1 %102, label %103, label %110

103:                                              ; preds = %98
  %104 = load ptr, ptr %7, align 8, !tbaa !27
  %105 = call ptr @xstrdup(ptr noundef %104)
  %106 = load ptr, ptr %11, align 8, !tbaa !50
  %107 = getelementptr inbounds nuw %struct.cache_ref_iterator, ptr %106, i32 0, i32 3
  store ptr %105, ptr %107, align 8, !tbaa !65
  %108 = load ptr, ptr %13, align 8, !tbaa !61
  %109 = getelementptr inbounds nuw %struct.cache_ref_iterator_level, ptr %108, i32 0, i32 1
  store i32 1, ptr %109, align 8, !tbaa !66
  br label %113

110:                                              ; preds = %98, %84
  %111 = load ptr, ptr %13, align 8, !tbaa !61
  %112 = getelementptr inbounds nuw %struct.cache_ref_iterator_level, ptr %111, i32 0, i32 1
  store i32 0, ptr %112, align 8, !tbaa !66
  br label %113

113:                                              ; preds = %110, %103
  %114 = load ptr, ptr %8, align 8, !tbaa !48
  %115 = load ptr, ptr %11, align 8, !tbaa !50
  %116 = getelementptr inbounds nuw %struct.cache_ref_iterator, ptr %115, i32 0, i32 5
  store ptr %114, ptr %116, align 8, !tbaa !67
  %117 = load ptr, ptr %12, align 8, !tbaa !52
  store ptr %117, ptr %5, align 8
  store i32 1, ptr %14, align 4
  br label %118

118:                                              ; preds = %113, %33
  call void @llvm.lifetime.end.p0(i64 8, ptr %13) #10
  call void @llvm.lifetime.end.p0(i64 8, ptr %12) #10
  call void @llvm.lifetime.end.p0(i64 8, ptr %11) #10
  call void @llvm.lifetime.end.p0(i64 8, ptr %10) #10
  %119 = load ptr, ptr %5, align 8
  ret ptr %119
}