; Function Attrs: nounwind uwtable
define dso_local ptr @cache_ref_iterator_begin(ptr noundef readonly captures(none) %0, ptr noundef %1, ptr noundef %2, i32 noundef %3) local_unnamed_addr #0 {
  %5 = load ptr, ptr %0, align 8, !tbaa !25
  %6 = getelementptr inbounds nuw i8, ptr %5, i64 8
  %7 = load i8, ptr %5, align 8, !tbaa !17
  %8 = and i8 %7, 32
  %.not.i = icmp eq i8 %8, 0
  br i1 %.not.i, label %get_ref_dir.exit, label %9

9:                                                ; preds = %4
  %10 = getelementptr inbounds nuw i8, ptr %5, i64 24
  %11 = load ptr, ptr %10, align 8, !tbaa !18
  %12 = getelementptr inbounds nuw i8, ptr %11, i64 16
  %13 = load ptr, ptr %12, align 8, !tbaa !19
  %.not9.i = icmp eq ptr %13, null
  br i1 %.not9.i, label %14, label %15

14:                                               ; preds = %9
  tail call void (ptr, i32, ptr, ...) @BUG_fl(ptr noundef nonnull @.str, i32 noundef 28, ptr noundef nonnull @.str.1) #10
  unreachable

15:                                               ; preds = %9
  %16 = getelementptr inbounds nuw i8, ptr %11, i64 8
  %17 = load ptr, ptr %16, align 8, !tbaa !22
  %18 = getelementptr inbounds nuw i8, ptr %5, i64 56
  tail call void %13(ptr noundef %17, ptr noundef nonnull %6, ptr noundef nonnull %18) #11
  %19 = load i8, ptr %5, align 8, !tbaa !17
  %20 = and i8 %19, -33
  store i8 %20, ptr %5, align 8, !tbaa !17
  br label %get_ref_dir.exit

get_ref_dir.exit:                                 ; preds = %4, %15
  %.not = icmp eq ptr %1, null
  br i1 %.not, label %.thread, label %21

21:                                               ; preds = %get_ref_dir.exit
  %22 = load i8, ptr %1, align 1, !tbaa !17
  %.not37 = icmp eq i8 %22, 0
  br i1 %.not37, label %.thread, label %23

23:                                               ; preds = %21
  %24 = tail call fastcc ptr @find_containing_dir(ptr noundef nonnull %6, ptr noundef nonnull %1)
  %.not38 = icmp eq ptr %24, null
  br i1 %.not38, label %25, label %.thread

25:                                               ; preds = %23
  %26 = tail call ptr @empty_ref_iterator_begin() #11
  br label %52

.thread:                                          ; preds = %get_ref_dir.exit, %21, %23
  %.03343 = phi ptr [ %24, %23 ], [ %6, %21 ], [ %6, %get_ref_dir.exit ]
  %.not39 = icmp eq i32 %3, 0
  br i1 %.not39, label %28, label %27

27:                                               ; preds = %.thread
  tail call fastcc void @prime_ref_dir(ptr noundef nonnull %.03343, ptr noundef %1)
  br label %28

28:                                               ; preds = %27, %.thread
  %29 = tail call ptr @xcalloc(i64 noundef 1, i64 noundef 80) #11
  tail call void @base_ref_iterator_init(ptr noundef %29, ptr noundef nonnull @cache_ref_iterator_vtable) #11
  %30 = getelementptr inbounds nuw i8, ptr %29, i64 48
  %31 = load i64, ptr %30, align 8, !tbaa !31
  %32 = icmp ult i64 %31, 10
  br i1 %32, label %st_mult.exit, label %._crit_edge

._crit_edge:                                      ; preds = %28
  %.phi.trans.insert = getelementptr inbounds nuw i8, ptr %29, i64 64
  %.pre = load ptr, ptr %.phi.trans.insert, align 8, !tbaa !40
  br label %40

st_mult.exit:                                     ; preds = %28
  %33 = mul nuw nsw i64 %31, 3
  %34 = add nuw nsw i64 %33, 48
  %35 = lshr i64 %34, 1
  store i64 %35, ptr %30, align 8, !tbaa !31
  %36 = getelementptr inbounds nuw i8, ptr %29, i64 64
  %37 = load ptr, ptr %36, align 8, !tbaa !40
  %38 = shl nuw nsw i64 %35, 4
  %39 = tail call ptr @xrealloc(ptr noundef %37, i64 noundef %38) #11
  store ptr %39, ptr %36, align 8, !tbaa !40
  br label %40

40:                                               ; preds = %._crit_edge, %st_mult.exit
  %41 = phi ptr [ %.pre, %._crit_edge ], [ %39, %st_mult.exit ]
  %42 = getelementptr inbounds nuw i8, ptr %29, i64 40
  store i64 1, ptr %42, align 8, !tbaa !41
  %43 = getelementptr inbounds nuw i8, ptr %41, i64 12
  store i32 -1, ptr %43, align 4, !tbaa !42
  store ptr %.03343, ptr %41, align 8, !tbaa !45
  br i1 %.not, label %49, label %44

44:                                               ; preds = %40
  %45 = load i8, ptr %1, align 1, !tbaa !17
  %.not40 = icmp eq i8 %45, 0
  br i1 %.not40, label %49, label %46

46:                                               ; preds = %44
  %47 = tail call ptr @xstrdup(ptr noundef nonnull %1) #11
  %48 = getelementptr inbounds nuw i8, ptr %29, i64 56
  store ptr %47, ptr %48, align 8, !tbaa !46
  br label %49

49:                                               ; preds = %40, %44, %46
  %.sink = phi i32 [ 1, %46 ], [ 0, %44 ], [ 0, %40 ]
  %50 = getelementptr inbounds nuw i8, ptr %41, i64 8
  store i32 %.sink, ptr %50, align 8, !tbaa !47
  %51 = getelementptr inbounds nuw i8, ptr %29, i64 72
  store ptr %2, ptr %51, align 8, !tbaa !48
  br label %52

52:                                               ; preds = %49, %25
  %.0 = phi ptr [ %29, %49 ], [ %26, %25 ]
  ret ptr %.0
}